target datalayout = "e-m:e-p270:32:32-p271:32:32-p272:64:64-i64:64-i128:128-f80:128-n8:16:32:64-S128"
target triple = "x86_64-pc-linux-gnu"

%"class.icu_77::Locale" = type <{ %"class.icu_77::UObject", [12 x i8], [6 x i8], [4 x i8], [2 x i8], i32, [4 x i8], ptr, [157 x i8], [3 x i8], ptr, i8, [7 x i8] }>
%"class.icu_77::UObject" = type { ptr }
%struct.UText = type { i32, i32, i32, i32, i64, i32, i32, i64, i32, i32, ptr, ptr, ptr, ptr, ptr, ptr, ptr, ptr, i64, i32, i32, i64, i32, i32 }

; Function Attrs: mustprogress uwtable
define void @ubrk_setText_77(ptr noundef %0, ptr noundef %1, i32 noundef %2, ptr noundef %3) #0 {
  %5 = alloca ptr, align 8
  %6 = alloca ptr, align 8
  %7 = alloca i32, align 4
  %8 = alloca ptr, align 8
  %9 = alloca %struct.UText, align 8
  store ptr %0, ptr %5, align 8, !tbaa !19
  store ptr %1, ptr %6, align 8, !tbaa !10
  store i32 %2, ptr %7, align 4, !tbaa !12
  store ptr %3, ptr %8, align 8, !tbaa !14
  call void @llvm.lifetime.start.p0(i64 144, ptr %9) #9
  call void @llvm.memset.p0.i64(ptr align 8 %9, i8 0, i64 144, i1 false)
  %10 = getelementptr inbounds %struct.UText, ptr %9, i32 0, i32 0
  store i32 878368812, ptr %10, align 8
  %11 = getelementptr inbounds %struct.UText, ptr %9, i32 0, i32 3
  store i32 144, ptr %11, align 4
  %12 = load ptr, ptr %6, align 8, !tbaa !10
  %13 = load i32, ptr %7, align 4, !tbaa !12
  %14 = sext i32 %13 to i64
  %15 = load ptr, ptr %8, align 8, !tbaa !14
  %16 = call ptr @utext_openUChars_77(ptr noundef %9, ptr noundef %12, i64 noundef %14, ptr noundef %15)
  %17 = load ptr, ptr %5, align 8, !tbaa !19
  %18 = load ptr, ptr %8, align 8, !tbaa !14
  %19 = load ptr, ptr %17, align 8, !tbaa !21
  %20 = getelementptr inbounds ptr, ptr %19, i64 8
  %21 = load ptr, ptr %20, align 8
  call void %21(ptr noundef nonnull align 8 dereferenceable(32) %17, ptr noundef %9, ptr noundef nonnull align 4 dereferenceable(4) %18)
  call void @llvm.lifetime.end.p0(i64 144, ptr %9) #9
  ret void
}

; Function Attrs: inlinehint mustprogress nounwind uwtable
define internal noundef signext i8 @_ZL9U_FAILURE10UErrorCode(i32 noundef %0) #1 {
  %2 = alloca i32, align 4
  store i32 %0, ptr %2, align 4, !tbaa !15
  %3 = load i32, ptr %2, align 4, !tbaa !15
  %4 = icmp sgt i32 %3, 0
  %5 = zext i1 %4 to i8
  ret i8 %5
}

; Function Attrs: mustprogress uwtable
define ptr @ubrk_open_77(i32 noundef %0, ptr noundef %1, ptr noundef %2, i32 noundef %3, ptr noundef %4) #0 personality ptr @__gxx_personality_v0 {
  %6 = alloca ptr, align 8
  %7 = alloca i32, align 4
  %8 = alloca ptr, align 8
  %9 = alloca ptr, align 8
  %10 = alloca i32, align 4
  %11 = alloca ptr, align 8
  %12 = alloca ptr, align 8
  %13 = alloca %"class.icu_77::Locale", align 8
  %14 = alloca ptr, align 8
  %15 = alloca i32, align 4
  %16 = alloca %"class.icu_77::Locale", align 8
  %17 = alloca %"class.icu_77::Locale", align 8
  %18 = alloca %"class.icu_77::Locale", align 8
  %19 = alloca %"class.icu_77::Locale", align 8
  %20 = alloca i32, align 4
  %21 = alloca ptr, align 8
  store i32 %0, ptr %7, align 4, !tbaa !3
  store ptr %1, ptr %8, align 8, !tbaa !7
  store ptr %2, ptr %9, align 8, !tbaa !10
  store i32 %3, ptr %10, align 4, !tbaa !12
  store ptr %4, ptr %11, align 8, !tbaa !14
  %22 = load ptr, ptr %11, align 8, !tbaa !14
  %23 = load i32, ptr %22, align 4, !tbaa !15
  %24 = call noundef signext i8 @_ZL9U_FAILURE10UErrorCode(i32 noundef %23)
  %25 = icmp ne i8 %24, 0
  br i1 %25, label %26, label %27

26:                                               ; preds = %5
  store ptr null, ptr %6, align 8
  br label %100

27:                                               ; preds = %5
  call void @llvm.lifetime.start.p0(i64 8, ptr %12) #9
  store ptr null, ptr %12, align 8, !tbaa !17
  %28 = load i32, ptr %7, align 4, !tbaa !3
  switch i32 %28, label %74 [
    i32 0, label %29
    i32 1, label %38
    i32 2, label %47
    i32 3, label %56
    i32 4, label %65
  ]

29:                                               ; preds = %27
  call void @llvm.lifetime.start.p0(i64 224, ptr %13) #9
  %30 = load ptr, ptr %8, align 8, !tbaa !7
  call void @_ZN6icu_776LocaleC1EPKcS2_S2_S2_(ptr noundef nonnull align 8 dereferenceable(217) %13, ptr noundef %30, ptr noundef null, ptr noundef null, ptr noundef null)
  %31 = load ptr, ptr %11, align 8, !tbaa !14
  %32 = invoke noundef ptr @_ZN6icu_7713BreakIterator23createCharacterInstanceERKNS_6LocaleER10UErrorCode(ptr noundef nonnull align 8 dereferenceable(217) %13, ptr noundef nonnull align 4 dereferenceable(4) %31)
          to label %33 unwind label %34

33:                                               ; preds = %29
  store ptr %32, ptr %12, align 8, !tbaa !17
  call void @_ZN6icu_776LocaleD1Ev(ptr noundef nonnull align 8 dereferenceable(217) %13) #9
  call void @llvm.lifetime.end.p0(i64 224, ptr %13) #9
  br label %76

34:                                               ; preds = %29
  %35 = landingpad { ptr, i32 }
          cleanup
  %36 = extractvalue { ptr, i32 } %35, 0
  store ptr %36, ptr %14, align 8
  %37 = extractvalue { ptr, i32 } %35, 1
  store i32 %37, ptr %15, align 4
  call void @_ZN6icu_776LocaleD1Ev(ptr noundef nonnull align 8 dereferenceable(217) %13) #9
  call void @llvm.lifetime.end.p0(i64 224, ptr %13) #9
  br label %99

38:                                               ; preds = %27
  call void @llvm.lifetime.start.p0(i64 224, ptr %16) #9
  %39 = load ptr, ptr %8, align 8, !tbaa !7
  call void @_ZN6icu_776LocaleC1EPKcS2_S2_S2_(ptr noundef nonnull align 8 dereferenceable(217) %16, ptr noundef %39, ptr noundef null, ptr noundef null, ptr noundef null)
  %40 = load ptr, ptr %11, align 8, !tbaa !14
  %41 = invoke noundef ptr @_ZN6icu_7713BreakIterator18createWordInstanceERKNS_6LocaleER10UErrorCode(ptr noundef nonnull align 8 dereferenceable(217) %16, ptr noundef nonnull align 4 dereferenceable(4) %40)
          to label %42 unwind label %43

42:                                               ; preds = %38
  store ptr %41, ptr %12, align 8, !tbaa !17
  call void @_ZN6icu_776LocaleD1Ev(ptr noundef nonnull align 8 dereferenceable(217) %16) #9
  call void @llvm.lifetime.end.p0(i64 224, ptr %16) #9
  br label %76

43:                                               ; preds = %38
  %44 = landingpad { ptr, i32 }
          cleanup
  %45 = extractvalue { ptr, i32 } %44, 0
  store ptr %45, ptr %14, align 8
  %46 = extractvalue { ptr, i32 } %44, 1
  store i32 %46, ptr %15, align 4
  call void @_ZN6icu_776LocaleD1Ev(ptr noundef nonnull align 8 dereferenceable(217) %16) #9
  call void @llvm.lifetime.end.p0(i64 224, ptr %16) #9
  br label %99

47:                                               ; preds = %27
  call void @llvm.lifetime.start.p0(i64 224, ptr %17) #9
  %48 = load ptr, ptr %8, align 8, !tbaa !7
  call void @_ZN6icu_776LocaleC1EPKcS2_S2_S2_(ptr noundef nonnull align 8 dereferenceable(217) %17, ptr noundef %48, ptr noundef null, ptr noundef null, ptr noundef null)
  %49 = load ptr, ptr %11, align 8, !tbaa !14
  %50 = invoke noundef ptr @_ZN6icu_7713BreakIterator18createLineInstanceERKNS_6LocaleER10UErrorCode(ptr noundef nonnull align 8 dereferenceable(217) %17, ptr noundef nonnull align 4 dereferenceable(4) %49)
          to label %51 unwind label %52

51:                                               ; preds = %47
  store ptr %50, ptr %12, align 8, !tbaa !17
  call void @_ZN6icu_776LocaleD1Ev(ptr noundef nonnull align 8 dereferenceable(217) %17) #9
  call void @llvm.lifetime.end.p0(i64 224, ptr %17) #9
  br label %76

52:                                               ; preds = %47
  %53 = landingpad { ptr, i32 }
          cleanup
  %54 = extractvalue { ptr, i32 } %53, 0
  store ptr %54, ptr %14, align 8
  %55 = extractvalue { ptr, i32 } %53, 1
  store i32 %55, ptr %15, align 4
  call void @_ZN6icu_776LocaleD1Ev(ptr noundef nonnull align 8 dereferenceable(217) %17) #9
  call void @llvm.lifetime.end.p0(i64 224, ptr %17) #9
  br label %99

56:                                               ; preds = %27
  call void @llvm.lifetime.start.p0(i64 224, ptr %18) #9
  %57 = load ptr, ptr %8, align 8, !tbaa !7
  call void @_ZN6icu_776LocaleC1EPKcS2_S2_S2_(ptr noundef nonnull align 8 dereferenceable(217) %18, ptr noundef %57, ptr noundef null, ptr noundef null, ptr noundef null)
  %58 = load ptr, ptr %11, align 8, !tbaa !14
  %59 = invoke noundef ptr @_ZN6icu_7713BreakIterator22createSentenceInstanceERKNS_6LocaleER10UErrorCode(ptr noundef nonnull align 8 dereferenceable(217) %18, ptr noundef nonnull align 4 dereferenceable(4) %58)
          to label %60 unwind label %61

60:                                               ; preds = %56
  store ptr %59, ptr %12, align 8, !tbaa !17
  call void @_ZN6icu_776LocaleD1Ev(ptr noundef nonnull align 8 dereferenceable(217) %18) #9
  call void @llvm.lifetime.end.p0(i64 224, ptr %18) #9
  br label %76

61:                                               ; preds = %56
  %62 = landingpad { ptr, i32 }
          cleanup
  %63 = extractvalue { ptr, i32 } %62, 0
  store ptr %63, ptr %14, align 8
  %64 = extractvalue { ptr, i32 } %62, 1
  store i32 %64, ptr %15, align 4
  call void @_ZN6icu_776LocaleD1Ev(ptr noundef nonnull align 8 dereferenceable(217) %18) #9
  call void @llvm.lifetime.end.p0(i64 224, ptr %18) #9
  br label %99

65:                                               ; preds = %27
  call void @llvm.lifetime.start.p0(i64 224, ptr %19) #9
  %66 = load ptr, ptr %8, align 8, !tbaa !7
  call void @_ZN6icu_776LocaleC1EPKcS2_S2_S2_(ptr noundef nonnull align 8 dereferenceable(217) %19, ptr noundef %66, ptr noundef null, ptr noundef null, ptr noundef null)
  %67 = load ptr, ptr %11, align 8, !tbaa !14
  %68 = invoke noundef ptr @_ZN6icu_7713BreakIterator19createTitleInstanceERKNS_6LocaleER10UErrorCode(ptr noundef nonnull align 8 dereferenceable(217) %19, ptr noundef nonnull align 4 dereferenceable(4) %67)
          to label %69 unwind label %70

69:                                               ; preds = %65
  store ptr %68, ptr %12, align 8, !tbaa !17
  call void @_ZN6icu_776LocaleD1Ev(ptr noundef nonnull align 8 dereferenceable(217) %19) #9
  call void @llvm.lifetime.end.p0(i64 224, ptr %19) #9
  br label %76

70:                                               ; preds = %65
  %71 = landingpad { ptr, i32 }
          cleanup
  %72 = extractvalue { ptr, i32 } %71, 0
  store ptr %72, ptr %14, align 8
  %73 = extractvalue { ptr, i32 } %71, 1
  store i32 %73, ptr %15, align 4
  call void @_ZN6icu_776LocaleD1Ev(ptr noundef nonnull align 8 dereferenceable(217) %19) #9
  call void @llvm.lifetime.end.p0(i64 224, ptr %19) #9
  br label %99

74:                                               ; preds = %27
  %75 = load ptr, ptr %11, align 8, !tbaa !14
  store i32 1, ptr %75, align 4, !tbaa !15
  br label %76

76:                                               ; preds = %74, %69, %60, %51, %42, %33
  %77 = load ptr, ptr %11, align 8, !tbaa !14
  %78 = load i32, ptr %77, align 4, !tbaa !15
  %79 = call noundef signext i8 @_ZL9U_FAILURE10UErrorCode(i32 noundef %78)
  %80 = icmp ne i8 %79, 0
  br i1 %80, label %81, label %82

81:                                               ; preds = %76
  store ptr null, ptr %6, align 8
  store i32 1, ptr %20, align 4
  br label %98

82:                                               ; preds = %76
  %83 = load ptr, ptr %12, align 8, !tbaa !17
  %84 = icmp eq ptr %83, null
  br i1 %84, label %85, label %87

85:                                               ; preds = %82
  %86 = load ptr, ptr %11, align 8, !tbaa !14
  store i32 7, ptr %86, align 4, !tbaa !15
  store ptr null, ptr %6, align 8
  store i32 1, ptr %20, align 4
  br label %98

87:                                               ; preds = %82
  call void @llvm.lifetime.start.p0(i64 8, ptr %21) #9
  %88 = load ptr, ptr %12, align 8, !tbaa !17
  store ptr %88, ptr %21, align 8, !tbaa !19
  %89 = load ptr, ptr %9, align 8, !tbaa !10
  %90 = icmp ne ptr %89, null
  br i1 %90, label %91, label %96

91:                                               ; preds = %87
  %92 = load ptr, ptr %21, align 8, !tbaa !19
  %93 = load ptr, ptr %9, align 8, !tbaa !10
  %94 = load i32, ptr %10, align 4, !tbaa !12
  %95 = load ptr, ptr %11, align 8, !tbaa !14
  call void @ubrk_setText_77(ptr noundef %92, ptr noundef %93, i32 noundef %94, ptr noundef %95)
  br label %96

96:                                               ; preds = %91, %87
  %97 = load ptr, ptr %21, align 8, !tbaa !19
  store ptr %97, ptr %6, align 8
  store i32 1, ptr %20, align 4
  call void @llvm.lifetime.end.p0(i64 8, ptr %21) #9
  br label %98

98:                                               ; preds = %96, %85, %81
  call void @llvm.lifetime.end.p0(i64 8, ptr %12) #9
  br label %100

99:                                               ; preds = %70, %61, %52, %43, %34
  call void @llvm.lifetime.end.p0(i64 8, ptr %12) #9
  br label %102

100:                                              ; preds = %98, %26
  %101 = load ptr, ptr %6, align 8
  ret ptr %101

102:                                              ; preds = %99
  %103 = load ptr, ptr %14, align 8
  %104 = load i32, ptr %15, align 4
  %105 = insertvalue { ptr, i32 } poison, ptr %103, 0
  %106 = insertvalue { ptr, i32 } %105, i32 %104, 1
  resume { ptr, i32 } %106
}