; Function Attrs: mustprogress uwtable
define noundef ptr @ubrk_open_77(i32 noundef %0, ptr noundef %1, ptr noundef %2, i32 noundef %3, ptr noundef %4) local_unnamed_addr #0 personality ptr @__gxx_personality_v0 {
  %6 = alloca %struct.UText, align 8
  %7 = alloca %"class.icu_77::Locale", align 8
  %8 = alloca %"class.icu_77::Locale", align 8
  %9 = alloca %"class.icu_77::Locale", align 8
  %10 = alloca %"class.icu_77::Locale", align 8
  %11 = alloca %"class.icu_77::Locale", align 8
  %12 = load i32, ptr %4, align 4, !tbaa !3
  %13 = icmp slt i32 %12, 1
  br i1 %13, label %14, label %54

14:                                               ; preds = %5
  switch i32 %0, label %.thread [
    i32 0, label %15
    i32 1, label %20
    i32 2, label %25
    i32 3, label %30
    i32 4, label %35
  ]

15:                                               ; preds = %14
  call void @llvm.lifetime.start.p0(i64 224, ptr nonnull %7) #8
  call void @_ZN6icu_776LocaleC1EPKcS2_S2_S2_(ptr noundef nonnull align 8 dereferenceable(217) %7, ptr noundef %1, ptr noundef null, ptr noundef null, ptr noundef null)
  %16 = invoke noundef ptr @_ZN6icu_7713BreakIterator23createCharacterInstanceERKNS_6LocaleER10UErrorCode(ptr noundef nonnull align 8 dereferenceable(217) %7, ptr noundef nonnull align 4 dereferenceable(4) %4)
          to label %17 unwind label %18

17:                                               ; preds = %15
  call void @_ZN6icu_776LocaleD1Ev(ptr noundef nonnull align 8 dereferenceable(217) %7) #8
  call void @llvm.lifetime.end.p0(i64 224, ptr nonnull %7) #8
  br label %40

18:                                               ; preds = %15
  %19 = landingpad { ptr, i32 }
          cleanup
  call void @_ZN6icu_776LocaleD1Ev(ptr noundef nonnull align 8 dereferenceable(217) %7) #8
  call void @llvm.lifetime.end.p0(i64 224, ptr nonnull %7) #8
  br label %53

20:                                               ; preds = %14
  call void @llvm.lifetime.start.p0(i64 224, ptr nonnull %8) #8
  call void @_ZN6icu_776LocaleC1EPKcS2_S2_S2_(ptr noundef nonnull align 8 dereferenceable(217) %8, ptr noundef %1, ptr noundef null, ptr noundef null, ptr noundef null)
  %21 = invoke noundef ptr @_ZN6icu_7713BreakIterator18createWordInstanceERKNS_6LocaleER10UErrorCode(ptr noundef nonnull align 8 dereferenceable(217) %8, ptr noundef nonnull align 4 dereferenceable(4) %4)
          to label %22 unwind label %23

22:                                               ; preds = %20
  call void @_ZN6icu_776LocaleD1Ev(ptr noundef nonnull align 8 dereferenceable(217) %8) #8
  call void @llvm.lifetime.end.p0(i64 224, ptr nonnull %8) #8
  br label %40

23:                                               ; preds = %20
  %24 = landingpad { ptr, i32 }
          cleanup
  call void @_ZN6icu_776LocaleD1Ev(ptr noundef nonnull align 8 dereferenceable(217) %8) #8
  call void @llvm.lifetime.end.p0(i64 224, ptr nonnull %8) #8
  br label %53

25:                                               ; preds = %14
  call void @llvm.lifetime.start.p0(i64 224, ptr nonnull %9) #8
  call void @_ZN6icu_776LocaleC1EPKcS2_S2_S2_(ptr noundef nonnull align 8 dereferenceable(217) %9, ptr noundef %1, ptr noundef null, ptr noundef null, ptr noundef null)
  %26 = invoke noundef ptr @_ZN6icu_7713BreakIterator18createLineInstanceERKNS_6LocaleER10UErrorCode(ptr noundef nonnull align 8 dereferenceable(217) %9, ptr noundef nonnull align 4 dereferenceable(4) %4)
          to label %27 unwind label %28

27:                                               ; preds = %25
  call void @_ZN6icu_776LocaleD1Ev(ptr noundef nonnull align 8 dereferenceable(217) %9) #8
  call void @llvm.lifetime.end.p0(i64 224, ptr nonnull %9) #8
  br label %40

28:                                               ; preds = %25
  %29 = landingpad { ptr, i32 }
          cleanup
  call void @_ZN6icu_776LocaleD1Ev(ptr noundef nonnull align 8 dereferenceable(217) %9) #8
  call void @llvm.lifetime.end.p0(i64 224, ptr nonnull %9) #8
  br label %53

30:                                               ; preds = %14
  call void @llvm.lifetime.start.p0(i64 224, ptr nonnull %10) #8
  call void @_ZN6icu_776LocaleC1EPKcS2_S2_S2_(ptr noundef nonnull align 8 dereferenceable(217) %10, ptr noundef %1, ptr noundef null, ptr noundef null, ptr noundef null)
  %31 = invoke noundef ptr @_ZN6icu_7713BreakIterator22createSentenceInstanceERKNS_6LocaleER10UErrorCode(ptr noundef nonnull align 8 dereferenceable(217) %10, ptr noundef nonnull align 4 dereferenceable(4) %4)
          to label %32 unwind label %33

32:                                               ; preds = %30
  call void @_ZN6icu_776LocaleD1Ev(ptr noundef nonnull align 8 dereferenceable(217) %10) #8
  call void @llvm.lifetime.end.p0(i64 224, ptr nonnull %10) #8
  br label %40

33:                                               ; preds = %30
  %34 = landingpad { ptr, i32 }
          cleanup
  call void @_ZN6icu_776LocaleD1Ev(ptr noundef nonnull align 8 dereferenceable(217) %10) #8
  call void @llvm.lifetime.end.p0(i64 224, ptr nonnull %10) #8
  br label %53

35:                                               ; preds = %14
  call void @llvm.lifetime.start.p0(i64 224, ptr nonnull %11) #8
  call void @_ZN6icu_776LocaleC1EPKcS2_S2_S2_(ptr noundef nonnull align 8 dereferenceable(217) %11, ptr noundef %1, ptr noundef null, ptr noundef null, ptr noundef null)
  %36 = invoke noundef ptr @_ZN6icu_7713BreakIterator19createTitleInstanceERKNS_6LocaleER10UErrorCode(ptr noundef nonnull align 8 dereferenceable(217) %11, ptr noundef nonnull align 4 dereferenceable(4) %4)
          to label %37 unwind label %38

37:                                               ; preds = %35
  call void @_ZN6icu_776LocaleD1Ev(ptr noundef nonnull align 8 dereferenceable(217) %11) #8
  call void @llvm.lifetime.end.p0(i64 224, ptr nonnull %11) #8
  br label %40

38:                                               ; preds = %35
  %39 = landingpad { ptr, i32 }
          cleanup
  call void @_ZN6icu_776LocaleD1Ev(ptr noundef nonnull align 8 dereferenceable(217) %11) #8
  call void @llvm.lifetime.end.p0(i64 224, ptr nonnull %11) #8
  br label %53

40:                                               ; preds = %37, %32, %27, %22, %17
  %.027 = phi ptr [ %36, %37 ], [ %31, %32 ], [ %26, %27 ], [ %21, %22 ], [ %16, %17 ]
  %41 = load i32, ptr %4, align 4, !tbaa !3
  %42 = icmp slt i32 %41, 1
  br i1 %42, label %43, label %54

.thread:                                          ; preds = %14
  store i32 1, ptr %4, align 4, !tbaa !3
  br label %54

43:                                               ; preds = %40
  %44 = icmp eq ptr %.027, null
  br i1 %44, label %.thread35, label %45

.thread35:                                        ; preds = %43
  store i32 7, ptr %4, align 4, !tbaa !3
  br label %54

45:                                               ; preds = %43
  %.not31 = icmp eq ptr %2, null
  br i1 %.not31, label %54, label %46

46:                                               ; preds = %45
  call void @llvm.lifetime.start.p0(i64 144, ptr nonnull %6) #8
  call void @llvm.memset.p0.i64(ptr noundef nonnull align 8 dereferenceable(144) %6, i8 0, i64 144, i1 false)
  store i32 878368812, ptr %6, align 8
  %47 = getelementptr inbounds nuw i8, ptr %6, i64 12
  store i32 144, ptr %47, align 4
  %48 = sext i32 %3 to i64
  %49 = call ptr @utext_openUChars_77(ptr noundef nonnull %6, ptr noundef nonnull %2, i64 noundef %48, ptr noundef nonnull %4)
  %50 = load ptr, ptr %.027, align 8, !tbaa !7
  %51 = getelementptr inbounds nuw i8, ptr %50, i64 64
  %52 = load ptr, ptr %51, align 8
  call void %52(ptr noundef nonnull align 8 dereferenceable(32) %.027, ptr noundef nonnull %6, ptr noundef nonnull align 4 dereferenceable(4) %4)
  call void @llvm.lifetime.end.p0(i64 144, ptr nonnull %6) #8
  br label %54

53:                                               ; preds = %38, %33, %28, %23, %18
  %.pn = phi { ptr, i32 } [ %39, %38 ], [ %34, %33 ], [ %29, %28 ], [ %24, %23 ], [ %19, %18 ]
  resume { ptr, i32 } %.pn

54:                                               ; preds = %.thread, %.thread35, %40, %46, %45, %5
  %.0 = phi ptr [ null, %5 ], [ null, %.thread35 ], [ null, %40 ], [ %.027, %46 ], [ %.027, %45 ], [ null, %.thread ]
  ret ptr %.0
}